; Function Attrs: mustprogress nofree norecurse nosync nounwind willreturn memory(argmem: write) uwtable
define internal noundef zeroext i1 @_ZNSt17_Function_handlerIFvRN2cv6detail9VectorRefEEZNS0_4gapi4s11n12_GLOBAL__N_18initCtorIS2_St5tupleIJbNSt7__cxx1112basic_stringIcSt11char_traitsIcESaIcEEENS0_5Size_IiEENS0_7Scalar_IdEENS0_6Point_IiEENSK_IfEENS0_7Point3_IfEENS0_3MatENS0_5Rect_IiEENS0_4util7variantIJNS5_3wip4draw4TextENSV_5FTextENSV_4RectENSV_6CircleENSV_4LineENSV_6MosaicENSV_5ImageENSV_4PolyEEEEEEJEE4initERNS0_5gimpl4DataEEUlS3_E_E10_M_managerERSt9_Any_dataRKS1C_St18_Manager_operation(ptr noundef nonnull writeonly align 8 captures(none) dereferenceable(16) %0, ptr noundef nonnull align 8 dereferenceable(16) %1, i32 noundef %2) #13 align 2 personality ptr @__gxx_personality_v0 {
  switch i32 %2, label %_ZNSt14_Function_base13_Base_managerIZN2cv4gapi4s11n12_GLOBAL__N_18initCtorINS1_6detail9VectorRefESt5tupleIJbNSt7__cxx1112basic_stringIcSt11char_traitsIcESaIcEEENS1_5Size_IiEENS1_7Scalar_IdEENS1_6Point_IiEENSJ_IfEENS1_7Point3_IfEENS1_3MatENS1_5Rect_IiEENS1_4util7variantIJNS2_3wip4draw4TextENSU_5FTextENSU_4RectENSU_6CircleENSU_4LineENSU_6MosaicENSU_5ImageENSU_4PolyEEEEEEJEE4initERNS1_5gimpl4DataEEUlRS7_E_E10_M_managerERSt9_Any_dataRKS1C_St18_Manager_operation.exit [
    i32 0, label %_ZNSt14_Function_base13_Base_managerIZN2cv4gapi4s11n12_GLOBAL__N_18initCtorINS1_6detail9VectorRefESt5tupleIJbNSt7__cxx1112basic_stringIcSt11char_traitsIcESaIcEEENS1_5Size_IiEENS1_7Scalar_IdEENS1_6Point_IiEENSJ_IfEENS1_7Point3_IfEENS1_3MatENS1_5Rect_IiEENS1_4util7variantIJNS2_3wip4draw4TextENSU_5FTextENSU_4RectENSU_6CircleENSU_4LineENSU_6MosaicENSU_5ImageENSU_4PolyEEEEEEJEE4initERNS1_5gimpl4DataEEUlRS7_E_E10_M_managerERSt9_Any_dataRKS1C_St18_Manager_operation.exit.sink.split
    i32 1, label %4
  ]

4:                                                ; preds = %3
  br label %_ZNSt14_Function_base13_Base_managerIZN2cv4gapi4s11n12_GLOBAL__N_18initCtorINS1_6detail9VectorRefESt5tupleIJbNSt7__cxx1112basic_stringIcSt11char_traitsIcESaIcEEENS1_5Size_IiEENS1_7Scalar_IdEENS1_6Point_IiEENSJ_IfEENS1_7Point3_IfEENS1_3MatENS1_5Rect_IiEENS1_4util7variantIJNS2_3wip4draw4TextENSU_5FTextENSU_4RectENSU_6CircleENSU_4LineENSU_6MosaicENSU_5ImageENSU_4PolyEEEEEEJEE4initERNS1_5gimpl4DataEEUlRS7_E_E10_M_managerERSt9_Any_dataRKS1C_St18_Manager_operation.exit.sink.split

_ZNSt14_Function_base13_Base_managerIZN2cv4gapi4s11n12_GLOBAL__N_18initCtorINS1_6detail9VectorRefESt5tupleIJbNSt7__cxx1112basic_stringIcSt11char_traitsIcESaIcEEENS1_5Size_IiEENS1_7Scalar_IdEENS1_6Point_IiEENSJ_IfEENS1_7Point3_IfEENS1_3MatENS1_5Rect_IiEENS1_4util7variantIJNS2_3wip4draw4TextENSU_5FTextENSU_4RectENSU_6CircleENSU_4LineENSU_6MosaicENSU_5ImageENSU_4PolyEEEEEEJEE4initERNS1_5gimpl4DataEEUlRS7_E_E10_M_managerERSt9_Any_dataRKS1C_St18_Manager_operation.exit.sink.split: ; preds = %3, %4
  %.sink = phi ptr [ %1, %4 ], [ @_ZTIZN2cv4gapi4s11n12_GLOBAL__N_18initCtorINS_6detail9VectorRefESt5tupleIJbNSt7__cxx1112basic_stringIcSt11char_traitsIcESaIcEEENS_5Size_IiEENS_7Scalar_IdEENS_6Point_IiEENSH_IfEENS_7Point3_IfEENS_3MatENS_5Rect_IiEENS_4util7variantIJNS0_3wip4draw4TextENSS_5FTextENSS_4RectENSS_6CircleENSS_4LineENSS_6MosaicENSS_5ImageENSS_4PolyEEEEEEJEE4initERNS_5gimpl4DataEEUlRS5_E_, %3 ]
  store ptr %.sink, ptr %0, align 8, !tbaa !261
  br label %_ZNSt14_Function_base13_Base_managerIZN2cv4gapi4s11n12_GLOBAL__N_18initCtorINS1_6detail9VectorRefESt5tupleIJbNSt7__cxx1112basic_stringIcSt11char_traitsIcESaIcEEENS1_5Size_IiEENS1_7Scalar_IdEENS1_6Point_IiEENSJ_IfEENS1_7Point3_IfEENS1_3MatENS1_5Rect_IiEENS1_4util7variantIJNS2_3wip4draw4TextENSU_5FTextENSU_4RectENSU_6CircleENSU_4LineENSU_6MosaicENSU_5ImageENSU_4PolyEEEEEEJEE4initERNS1_5gimpl4DataEEUlRS7_E_E10_M_managerERSt9_Any_dataRKS1C_St18_Manager_operation.exit

_ZNSt14_Function_base13_Base_managerIZN2cv4gapi4s11n12_GLOBAL__N_18initCtorINS1_6detail9VectorRefESt5tupleIJbNSt7__cxx1112basic_stringIcSt11char_traitsIcESaIcEEENS1_5Size_IiEENS1_7Scalar_IdEENS1_6Point_IiEENSJ_IfEENS1_7Point3_IfEENS1_3MatENS1_5Rect_IiEENS1_4util7variantIJNS2_3wip4draw4TextENSU_5FTextENSU_4RectENSU_6CircleENSU_4LineENSU_6MosaicENSU_5ImageENSU_4PolyEEEEEEJEE4initERNS1_5gimpl4DataEEUlRS7_E_E10_M_managerERSt9_Any_dataRKS1C_St18_Manager_operation.exit: ; preds = %_ZNSt14_Function_base13_Base_managerIZN2cv4gapi4s11n12_GLOBAL__N_18initCtorINS1_6detail9VectorRefESt5tupleIJbNSt7__cxx1112basic_stringIcSt11char_traitsIcESaIcEEENS1_5Size_IiEENS1_7Scalar_IdEENS1_6Point_IiEENSJ_IfEENS1_7Point3_IfEENS1_3MatENS1_5Rect_IiEENS1_4util7variantIJNS2_3wip4draw4TextENSU_5FTextENSU_4RectENSU_6CircleENSU_4LineENSU_6MosaicENSU_5ImageENSU_4PolyEEEEEEJEE4initERNS1_5gimpl4DataEEUlRS7_E_E10_M_managerERSt9_Any_dataRKS1C_St18_Manager_operation.exit.sink.split, %3
  ret i1 false
}